; Function Attrs: mustprogress nounwind uwtable
define hidden noundef ptr @_ZN17TenuredGeneration22allocate_for_promotionEP7oopDescm(ptr noundef nonnull align 8 dereferenceable(248) %0, ptr nocapture noundef readnone %1, i64 noundef %2) local_unnamed_addr #0 align 2 {
  %4 = load ptr, ptr %0, align 8
  %5 = getelementptr inbounds i8, ptr %4, i64 32
  %6 = load ptr, ptr %5, align 8
  %7 = tail call noundef ptr %6(ptr noundef nonnull align 8 dereferenceable(248) %0, i64 noundef %2, i1 noundef zeroext false) #8
  %8 = icmp eq ptr %7, null
  br i1 %8, label %9, label %14

9:                                                ; preds = %3
  %10 = load ptr, ptr %0, align 8
  %11 = getelementptr inbounds i8, ptr %10, i64 48
  %12 = load ptr, ptr %11, align 8
  %13 = tail call noundef ptr %12(ptr noundef nonnull align 8 dereferenceable(248) %0, i64 noundef %2, i1 noundef zeroext false) #8
  br label %14

14:                                               ; preds = %9, %3
  %.0 = phi ptr [ %13, %9 ], [ %7, %3 ]
  ret ptr %.0
}